; Function Attrs: mustprogress nounwind uwtable
define dso_local void @_ZN4node7UDPWrap6OnRecvEP8uv_udp_slPK8uv_buf_tPK8sockaddrj(ptr noundef %handle, i64 noundef %nread, ptr noundef %buf, ptr noundef %addr, i32 noundef %flags) #3 align 2 {
entry:
  %0 = ptrtoint ptr %handle to i64
  %sub.i.i = add i64 %0, -120
  %1 = inttoptr i64 %sub.i.i to ptr
  %listener_.i = getelementptr inbounds i8, ptr %1, i64 96
  %2 = load ptr, ptr %listener_.i, align 8
  %cmp.not.i = icmp eq ptr %2, null
  br i1 %cmp.not.i, label %do.body4.i, label %_ZNK4node11UDPWrapBase8listenerEv.exit

do.body4.i:                                       ; preds = %entry
  tail call void @_ZN4node6AssertERKNS_13AssertionInfoE(ptr noundef nonnull align 8 dereferenceable(24) @_ZZNK4node11UDPWrapBase8listenerEvE4args) #19
  tail call void @abort() #20
  unreachable

_ZNK4node11UDPWrapBase8listenerEv.exit:           ; preds = %entry
  %vtable = load ptr, ptr %2, align 8
  %vfn = getelementptr inbounds i8, ptr %vtable, i64 24
  %3 = load ptr, ptr %vfn, align 8
  tail call void %3(ptr noundef nonnull align 8 dereferenceable(16) %2, i64 noundef %nread, ptr noundef nonnull align 8 dereferenceable(16) %buf, ptr noundef %addr, i32 noundef %flags) #19
  ret void
}